target datalayout = "e-m:e-p270:32:32-p271:32:32-p272:64:64-i64:64-i128:128-f80:128-n8:16:32:64-S128"
target triple = "x86_64-pc-linux-gnu"

%struct._zend_refcounted_h = type { i32, %union.anon }
%union.anon = type { i32 }
%struct._zval_struct = type { %union._zend_value, %union.anon.3, %union.anon.6 }
%union._zend_value = type { i64 }
%union.anon.3 = type { i32 }
%union.anon.6 = type { i32 }
%struct._phar_metadata_tracker = type { %struct._zval_struct, ptr }

; Function Attrs: nounwind uwtable
define hidden void @phar_metadata_tracker_free(ptr noundef %0, i32 noundef %1) #0 {
  %3 = alloca ptr, align 8
  %4 = alloca i32, align 4
  %5 = alloca i32, align 4
  %6 = alloca ptr, align 8
  %7 = alloca ptr, align 8
  %8 = alloca ptr, align 8
  %9 = alloca i32, align 4
  %10 = alloca %struct._zval_struct, align 8
  %11 = alloca ptr, align 8
  %12 = alloca ptr, align 8
  %13 = alloca ptr, align 8
  %14 = alloca i32, align 4
  store ptr %0, ptr %8, align 8
  store i32 %1, ptr %9, align 4
  %15 = load ptr, ptr %8, align 8
  %16 = getelementptr inbounds %struct._phar_metadata_tracker, ptr %15, i32 0, i32 1
  %17 = load ptr, ptr %16, align 8
  %18 = icmp ne ptr %17, null
  br i1 %18, label %19, label %56

19:                                               ; preds = %2
  %20 = load ptr, ptr %8, align 8
  %21 = getelementptr inbounds %struct._phar_metadata_tracker, ptr %20, i32 0, i32 1
  %22 = load ptr, ptr %21, align 8
  store ptr %22, ptr %6, align 8
  %23 = load ptr, ptr %6, align 8
  %24 = getelementptr inbounds %struct._zend_refcounted_h, ptr %23, i32 0, i32 1
  %25 = load i32, ptr %24, align 4
  store i32 %25, ptr %4, align 4
  %26 = load i32, ptr %4, align 4
  %27 = and i32 %26, 1008
  %28 = and i32 %27, 64
  %29 = icmp ne i32 %28, 0
  br i1 %29, label %53, label %30

30:                                               ; preds = %19
  %31 = load ptr, ptr %6, align 8
  store ptr %31, ptr %3, align 8
  %32 = load ptr, ptr %3, align 8
  %33 = load i32, ptr %32, align 4
  %34 = icmp ugt i32 %33, 0
  call void @llvm.assume(i1 %34)
  %35 = load ptr, ptr %3, align 8
  %36 = load i32, ptr %35, align 4
  %37 = add i32 %36, -1
  store i32 %37, ptr %35, align 4
  %38 = icmp eq i32 %37, 0
  br i1 %38, label %39, label %52

39:                                               ; preds = %30
  %40 = load ptr, ptr %6, align 8
  %41 = getelementptr inbounds %struct._zend_refcounted_h, ptr %40, i32 0, i32 1
  %42 = load i32, ptr %41, align 4
  store i32 %42, ptr %5, align 4
  %43 = load i32, ptr %5, align 4
  %44 = and i32 %43, 1008
  %45 = and i32 %44, 128
  %46 = icmp ne i32 %45, 0
  br i1 %46, label %47, label %49

47:                                               ; preds = %39
  %48 = load ptr, ptr %6, align 8
  call void @free(ptr noundef %48) #13
  br label %51

49:                                               ; preds = %39
  %50 = load ptr, ptr %6, align 8
  call void @_efree(ptr noundef %50) #13
  br label %51

51:                                               ; preds = %49, %47
  br label %52

52:                                               ; preds = %51, %30
  br label %53

53:                                               ; preds = %52, %19
  %54 = load ptr, ptr %8, align 8
  %55 = getelementptr inbounds %struct._phar_metadata_tracker, ptr %54, i32 0, i32 1
  store ptr null, ptr %55, align 8
  br label %56

56:                                               ; preds = %53, %2
  %57 = load ptr, ptr %8, align 8
  %58 = getelementptr inbounds %struct._phar_metadata_tracker, ptr %57, i32 0, i32 0
  store ptr %58, ptr %7, align 8
  %59 = load ptr, ptr %7, align 8
  %60 = getelementptr inbounds %struct._zval_struct, ptr %59, i32 0, i32 1
  %61 = load i8, ptr %60, align 8
  %62 = zext i8 %61 to i32
  %63 = icmp eq i32 %62, 0
  br i1 %63, label %91, label %64

64:                                               ; preds = %56
  %65 = load i32, ptr %9, align 4
  %66 = icmp ne i32 %65, 0
  %67 = xor i1 %66, true
  call void @llvm.assume(i1 %67)
  br label %68

68:                                               ; preds = %64
  store ptr %10, ptr %11, align 8
  %69 = load ptr, ptr %8, align 8
  %70 = getelementptr inbounds %struct._phar_metadata_tracker, ptr %69, i32 0, i32 0
  store ptr %70, ptr %12, align 8
  %71 = load ptr, ptr %12, align 8
  %72 = getelementptr inbounds %struct._zval_struct, ptr %71, i32 0, i32 0
  %73 = load ptr, ptr %72, align 8
  store ptr %73, ptr %13, align 8
  %74 = load ptr, ptr %12, align 8
  %75 = getelementptr inbounds %struct._zval_struct, ptr %74, i32 0, i32 1
  %76 = load i32, ptr %75, align 8
  store i32 %76, ptr %14, align 4
  br label %77

77:                                               ; preds = %68
  %78 = load ptr, ptr %13, align 8
  %79 = load ptr, ptr %11, align 8
  %80 = getelementptr inbounds %struct._zval_struct, ptr %79, i32 0, i32 0
  store ptr %78, ptr %80, align 8
  %81 = load i32, ptr %14, align 4
  %82 = load ptr, ptr %11, align 8
  %83 = getelementptr inbounds %struct._zval_struct, ptr %82, i32 0, i32 1
  store i32 %81, ptr %83, align 8
  br label %84

84:                                               ; preds = %77
  br label %85

85:                                               ; preds = %84
  br label %86

86:                                               ; preds = %85
  %87 = load ptr, ptr %8, align 8
  %88 = getelementptr inbounds %struct._phar_metadata_tracker, ptr %87, i32 0, i32 0
  %89 = getelementptr inbounds %struct._zval_struct, ptr %88, i32 0, i32 1
  store i32 0, ptr %89, align 8
  br label %90

90:                                               ; preds = %86
  call void @zval_ptr_dtor(ptr noundef %10)
  br label %91

91:                                               ; preds = %90, %56
  ret void
}