; Function Attrs: nounwind uwtable
define hidden void @phar_metadata_tracker_free(ptr nocapture noundef %0, i32 noundef %1) local_unnamed_addr #0 {
  %3 = alloca %struct._zval_struct, align 8
  %4 = getelementptr inbounds i8, ptr %0, i64 16
  %5 = load ptr, ptr %4, align 8
  %.not = icmp eq ptr %5, null
  br i1 %.not, label %20, label %6

6:                                                ; preds = %2
  %7 = getelementptr inbounds i8, ptr %5, i64 4
  %8 = load i32, ptr %7, align 4
  %9 = and i32 %8, 64
  %.not22 = icmp eq i32 %9, 0
  br i1 %.not22, label %10, label %19

10:                                               ; preds = %6
  %11 = load i32, ptr %5, align 4
  %12 = icmp ne i32 %11, 0
  tail call void @llvm.assume(i1 %12)
  %13 = add i32 %11, -1
  store i32 %13, ptr %5, align 4
  %14 = icmp eq i32 %13, 0
  br i1 %14, label %15, label %19

15:                                               ; preds = %10
  %16 = and i32 %8, 128
  %.not23 = icmp eq i32 %16, 0
  br i1 %.not23, label %18, label %17

17:                                               ; preds = %15
  tail call void @free(ptr noundef nonnull %5) #23
  br label %19

18:                                               ; preds = %15
  tail call void @_efree(ptr noundef nonnull %5) #23
  br label %19

19:                                               ; preds = %10, %18, %17, %6
  store ptr null, ptr %4, align 8
  br label %20

20:                                               ; preds = %19, %2
  %21 = getelementptr inbounds i8, ptr %0, i64 8
  %22 = load i8, ptr %21, align 8
  %23 = icmp eq i8 %22, 0
  br i1 %23, label %28, label %24

24:                                               ; preds = %20
  %.not24 = icmp eq i32 %1, 0
  tail call void @llvm.assume(i1 %.not24)
  %25 = load ptr, ptr %0, align 8
  %26 = load i32, ptr %21, align 8
  store ptr %25, ptr %3, align 8
  %27 = getelementptr inbounds i8, ptr %3, i64 8
  store i32 %26, ptr %27, align 8
  store i32 0, ptr %21, align 8
  call void @zval_ptr_dtor(ptr noundef nonnull %3) #23
  br label %28

28:                                               ; preds = %24, %20
  ret void
}